ccopy_reg
_reconstructor
p0
(csklearn.pipeline
Pipeline
p1
c__builtin__
object
p2
Ntp3
Rp4
(dp5
S'steps'
p6
(lp7
(S'scaler'
p8
g0
(csklearn.preprocessing.data
StandardScaler
p9
g2
Ntp10
Rp11
(dp12
S'copy'
p13
I01
sS'with_mean'
p14
I01
sS'with_std'
p15
I01
sbtp16
a(S'reduce_dim'
p17
g0
(csklearn.decomposition.pca
RandomizedPCA
p18
g2
Ntp19
Rp20
(dp21
S'random_state'
p22
Nsg13
I01
sS'n_components'
p23
I2
sS'iterated_power'
p24
I3
sS'whiten'
p25
I00
sbtp26
a(S'tree'
p27
g0
(csklearn.tree.tree
DecisionTreeClassifier
p28
g2
Ntp29
Rp30
(dp31
S'splitter'
p32
S'best'
p33
sS'tree_'
p34
NsS'n_features_'
p35
NsS'n_outputs_'
p36
NsS'n_classes_'
p37
NsS'max_leaf_nodes'
p38
NsS'classes_'
p39
NsS'max_features_'
p40
NsS'min_samples_leaf'
p41
I1
sS'max_features'
p42
Nsg22
I10
sS'criterion'
p43
S'gini'
p44
sS'min_samples_split'
p45
I2
sS'max_depth'
p46
Nsbtp47
asS'named_steps'
p48
(dp49
g17
g20
sg27
g30
sg8
g11
ssb.